target datalayout = "e-m:e-p270:32:32-p271:32:32-p272:64:64-i64:64-i128:128-f80:128-n8:16:32:64-S128"
target triple = "x86_64-pc-linux-gnu"

; Function Attrs: inlinehint mustprogress nounwind uwtable
define internal noundef signext i8 @_ZL9ImToUpperc(i8 noundef signext %0) #7 {
  %2 = alloca i8, align 1
  store i8 %0, ptr %2, align 1, !tbaa !252
  %3 = load i8, ptr %2, align 1, !tbaa !252
  %4 = sext i8 %3 to i32
  %5 = icmp sge i32 %4, 97
  br i1 %5, label %6, label %15

6:                                                ; preds = %1
  %7 = load i8, ptr %2, align 1, !tbaa !252
  %8 = sext i8 %7 to i32
  %9 = icmp sle i32 %8, 122
  br i1 %9, label %10, label %15

10:                                               ; preds = %6
  %11 = load i8, ptr %2, align 1, !tbaa !252
  %12 = sext i8 %11 to i32
  %13 = and i32 %12, -33
  %14 = trunc i32 %13 to i8
  store i8 %14, ptr %2, align 1, !tbaa !252
  br label %17

15:                                               ; preds = %6, %1
  %16 = load i8, ptr %2, align 1, !tbaa !252
  br label %17

17:                                               ; preds = %15, %10
  %18 = phi i8 [ %14, %10 ], [ %16, %15 ]
  ret i8 %18
}

; Function Attrs: mustprogress uwtable
define noundef i32 @_Z9ImStricmpPKcS0_(ptr noundef %0, ptr noundef %1) #0 {
  %3 = alloca ptr, align 8
  %4 = alloca ptr, align 8
  %5 = alloca i32, align 4
  store ptr %0, ptr %3, align 8, !tbaa !261
  store ptr %1, ptr %4, align 8, !tbaa !261
  call void @llvm.lifetime.start.p0(i64 4, ptr %5) #16
  br label %6

6:                                                ; preds = %23, %2
  %7 = load ptr, ptr %4, align 8, !tbaa !261
  %8 = load i8, ptr %7, align 1, !tbaa !252
  %9 = call noundef signext i8 @_ZL9ImToUpperc(i8 noundef signext %8)
  %10 = sext i8 %9 to i32
  %11 = load ptr, ptr %3, align 8, !tbaa !261
  %12 = load i8, ptr %11, align 1, !tbaa !252
  %13 = call noundef signext i8 @_ZL9ImToUpperc(i8 noundef signext %12)
  %14 = sext i8 %13 to i32
  %15 = sub nsw i32 %10, %14
  store i32 %15, ptr %5, align 4, !tbaa !125
  %16 = icmp eq i32 %15, 0
  br i1 %16, label %17, label %21

17:                                               ; preds = %6
  %18 = load ptr, ptr %3, align 8, !tbaa !261
  %19 = load i8, ptr %18, align 1, !tbaa !252
  %20 = icmp ne i8 %19, 0
  br label %21

21:                                               ; preds = %17, %6
  %22 = phi i1 [ false, %6 ], [ %20, %17 ]
  br i1 %22, label %23, label %28

23:                                               ; preds = %21
  %24 = load ptr, ptr %3, align 8, !tbaa !261
  %25 = getelementptr inbounds nuw i8, ptr %24, i32 1
  store ptr %25, ptr %3, align 8, !tbaa !261
  %26 = load ptr, ptr %4, align 8, !tbaa !261
  %27 = getelementptr inbounds nuw i8, ptr %26, i32 1
  store ptr %27, ptr %4, align 8, !tbaa !261
  br label %6, !llvm.loop !296

28:                                               ; preds = %21
  %29 = load i32, ptr %5, align 4, !tbaa !125
  call void @llvm.lifetime.end.p0(i64 4, ptr %5) #16
  ret i32 %29
}