; Function Attrs: mustprogress nofree norecurse nosync nounwind willreturn memory(argmem: read) uwtable
define noundef range(i32 -255, 256) i32 @_Z9ImStricmpPKcS0_(ptr noundef readonly captures(none) %0, ptr noundef readonly captures(none) %1) local_unnamed_addr #17 {
  %3 = load i8, ptr %1, align 1, !tbaa !211
  %4 = add i8 %3, -97
  %or.cond.i8 = icmp ult i8 %4, 26
  %5 = and i8 %3, 95
  %6 = select i1 %or.cond.i8, i8 %5, i8 %3
  %7 = load i8, ptr %0, align 1, !tbaa !211
  %8 = add i8 %7, -97
  %or.cond.i69 = icmp ult i8 %8, 26
  %9 = and i8 %7, 95
  %10 = select i1 %or.cond.i69, i8 %9, i8 %7
  %11 = icmp ne i8 %6, %10
  %.not10 = icmp eq i8 %7, 0
  %or.cond11 = or i1 %.not10, %11
  br i1 %or.cond11, label %.critedge, label %.lr.ph

.lr.ph:                                           ; preds = %2, %.lr.ph
  %.013 = phi ptr [ %12, %.lr.ph ], [ %0, %2 ]
  %.0512 = phi ptr [ %13, %.lr.ph ], [ %1, %2 ]
  %12 = getelementptr inbounds nuw i8, ptr %.013, i64 1
  %13 = getelementptr inbounds nuw i8, ptr %.0512, i64 1
  %14 = load i8, ptr %13, align 1, !tbaa !211
  %15 = add i8 %14, -97
  %or.cond.i = icmp ult i8 %15, 26
  %16 = and i8 %14, 95
  %17 = select i1 %or.cond.i, i8 %16, i8 %14
  %18 = load i8, ptr %12, align 1, !tbaa !211
  %19 = add i8 %18, -97
  %or.cond.i6 = icmp ult i8 %19, 26
  %20 = and i8 %18, 95
  %21 = select i1 %or.cond.i6, i8 %20, i8 %18
  %22 = icmp ne i8 %17, %21
  %.not = icmp eq i8 %18, 0
  %or.cond = or i1 %.not, %22
  br i1 %or.cond, label %.critedge, label %.lr.ph, !llvm.loop !249

.critedge:                                        ; preds = %.lr.ph, %2
  %.lcssa7 = phi i8 [ %6, %2 ], [ %17, %.lr.ph ]
  %.lcssa = phi i8 [ %10, %2 ], [ %21, %.lr.ph ]
  %23 = sext i8 %.lcssa to i32
  %24 = sext i8 %.lcssa7 to i32
  %25 = sub nsw i32 %24, %23
  ret i32 %25
}